target datalayout = "e-m:e-p270:32:32-p271:32:32-p272:64:64-i64:64-i128:128-f80:128-n8:16:32:64-S128"
target triple = "x86_64-pc-linux-gnu"

; Function Attrs: null_pointer_is_valid sspstrong uwtable
define internal i32 @get_tns_pdu_len(ptr noundef %0, ptr noundef %1, i32 noundef %2, ptr noundef %3) #0 {
  %5 = alloca i32, align 4
  %6 = alloca ptr, align 8
  %7 = alloca ptr, align 8
  %8 = alloca i32, align 4
  %9 = alloca ptr, align 8
  %10 = alloca i32, align 4
  %11 = alloca i8, align 1
  %12 = alloca i32, align 4
  %13 = alloca i32, align 4
  store ptr %0, ptr %6, align 8
  store ptr %1, ptr %7, align 8
  store i32 %2, ptr %8, align 4
  store ptr %3, ptr %9, align 8
  call void @llvm.lifetime.start.p0(i64 4, ptr %10) #7
  %14 = load ptr, ptr %7, align 8
  %15 = load i32, ptr %8, align 4
  %16 = call zeroext i16 @tvb_get_ntohs(ptr noundef %14, i32 noundef %15)
  %17 = zext i16 %16 to i32
  store i32 %17, ptr %10, align 4
  %18 = load i32, ptr %8, align 4
  %19 = add i32 %18, 4
  store i32 %19, ptr %8, align 4
  call void @llvm.lifetime.start.p0(i64 1, ptr %11) #7
  %20 = load ptr, ptr %7, align 8
  %21 = load i32, ptr %8, align 4
  %22 = call zeroext i8 @tvb_get_uint8(ptr noundef %20, i32 noundef %21)
  store i8 %22, ptr %11, align 1
  %23 = load i8, ptr %11, align 1
  %24 = zext i8 %23 to i32
  %25 = icmp eq i32 %24, 15
  br i1 %25, label %26, label %40

26:                                               ; preds = %4
  %27 = load i32, ptr %8, align 4
  %28 = add i32 %27, 8
  store i32 %28, ptr %8, align 4
  %29 = load ptr, ptr %7, align 8
  %30 = load i32, ptr %8, align 4
  %31 = call zeroext i1 @tvb_bytes_exist(ptr noundef %29, i32 noundef %30, i32 noundef 4)
  br i1 %31, label %33, label %32

32:                                               ; preds = %26
  store i32 0, ptr %5, align 4
  store i32 1, ptr %12, align 4
  br label %42

33:                                               ; preds = %26
  call void @llvm.lifetime.start.p0(i64 4, ptr %13) #7
  %34 = load ptr, ptr %7, align 8
  %35 = load i32, ptr %8, align 4
  %36 = call i32 @tvb_get_ntohl(ptr noundef %34, i32 noundef %35)
  store i32 %36, ptr %13, align 4
  %37 = load i32, ptr %10, align 4
  %38 = load i32, ptr %13, align 4
  %39 = add i32 %37, %38
  store i32 %39, ptr %5, align 4
  store i32 1, ptr %12, align 4
  call void @llvm.lifetime.end.p0(i64 4, ptr %13) #7
  br label %42

40:                                               ; preds = %4
  %41 = load i32, ptr %10, align 4
  store i32 %41, ptr %5, align 4
  store i32 1, ptr %12, align 4
  br label %42

42:                                               ; preds = %40, %33, %32
  call void @llvm.lifetime.end.p0(i64 1, ptr %11) #7
  call void @llvm.lifetime.end.p0(i64 4, ptr %10) #7
  %43 = load i32, ptr %5, align 4
  ret i32 %43
}