; Function Attrs: null_pointer_is_valid sspstrong uwtable
define internal i32 @get_tns_pdu_len(ptr readnone captures(none) %0, ptr noundef %1, i32 noundef %2, ptr readnone captures(none) %3) #0 {
  %5 = tail call zeroext i16 @tvb_get_ntohs(ptr noundef %1, i32 noundef %2)
  %6 = zext i16 %5 to i32
  %7 = add i32 %2, 4
  %8 = tail call zeroext i8 @tvb_get_uint8(ptr noundef %1, i32 noundef %7)
  %9 = icmp eq i8 %8, 15
  br i1 %9, label %10, label %16

10:                                               ; preds = %4
  %11 = add i32 %2, 12
  %12 = tail call zeroext i1 @tvb_bytes_exist(ptr noundef %1, i32 noundef %11, i32 noundef 4)
  br i1 %12, label %13, label %16

13:                                               ; preds = %10
  %14 = tail call i32 @tvb_get_ntohl(ptr noundef %1, i32 noundef %11)
  %15 = add i32 %14, %6
  br label %16

16:                                               ; preds = %4, %10, %13
  %.0 = phi i32 [ %15, %13 ], [ 0, %10 ], [ %6, %4 ]
  ret i32 %.0
}